target datalayout = "e-m:e-p270:32:32-p271:32:32-p272:64:64-i64:64-i128:128-f80:128-n8:16:32:64-S128"
target triple = "x86_64-pc-linux-gnu"

%class.ComprDataIO = type <{ i8, [7 x i8], i64, ptr, i8, [7 x i8], i64, ptr, i64, ptr, i64, i64, i8, i8, i8, i8, [4 x i8], ptr, ptr, ptr, ptr, ptr, ptr, ptr, i32, i32, i8, i8, i8, [5 x i8], i64, i64, i64, i64, i64, i64, i64, %class.DataHash, %class.DataHash, %class.DataHash, i8, i8, [6 x i8] }>
%class.DataHash = type { i32, i32, ptr }
%class.CryptData = type { [4 x %"struct.CryptData::KDF3CacheItem"], i32, [4 x i8], [4 x %"struct.CryptData::KDF5CacheItem"], i32, i32, %class.Rijndael, [256 x i32], [256 x i8], [4 x i32], [3 x i8], [4 x i16], [4 x i8] }
%"struct.CryptData::KDF3CacheItem" = type { %class.SecPassword, [8 x i8], [16 x i8], [16 x i8], i8, [7 x i8] }
%class.SecPassword = type <{ %"class.std::vector", i8, [7 x i8] }>
%"class.std::vector" = type { %"struct.std::_Vector_base" }
%"struct.std::_Vector_base" = type { %"struct.std::_Vector_base<wchar_t, std::allocator<wchar_t>>::_Vector_impl" }
%"struct.std::_Vector_base<wchar_t, std::allocator<wchar_t>>::_Vector_impl" = type { %"struct.std::_Vector_base<wchar_t, std::allocator<wchar_t>>::_Vector_impl_data" }
%"struct.std::_Vector_base<wchar_t, std::allocator<wchar_t>>::_Vector_impl_data" = type { ptr, ptr, ptr }
%"struct.CryptData::KDF5CacheItem" = type { %class.SecPassword, [16 x i8], [32 x i8], i32, [32 x i8], [32 x i8], [4 x i8] }
%class.Rijndael = type { i8, i32, [16 x i8], [15 x [4 x [4 x i8]]] }
%class.Archive = type <{ %class.File, %class.CryptData, %class.ComprDataIO, i8, [7 x i8], ptr, %class.RarTime, i32, i32, i8, [7 x i8], %class.QuickOpen, i8, [3 x i8], %struct.BaseBlock, %struct.MarkHeader, [4 x i8], %struct.MainHeader, %struct.CryptHeader, [4 x i8], %struct.FileHeader, %struct.EndArcHeader, %struct.SubBlockHeader, [4 x i8], %struct.FileHeader, %struct.CommentHeader, %struct.ProtectHeader, %struct.EAHeader, %struct.StreamHeader, [4 x i8], i64, i64, i32, i8, i8, i8, i8, i8, i8, i8, i8, i8, [3 x i8], i64, i8, i8, [16 x i8], i8, i8, i32, i64, i64, i64, i8, [3 x i8], [2048 x i32], [4 x i8] }>
%class.File = type { ptr, i64, i8, i32, i8, i8, i32, i8, i8, i8, i8, i8, i64, i8, [2048 x i32], i32, ptr }
%class.RarTime = type { i64 }
%class.QuickOpen = type <{ ptr, i8, [7 x i8], ptr, ptr, ptr, i64, %class.CryptData, i8, [7 x i8], i64, i64, i64, i64, i64, i64, %class.Array, i64, i64, i8, [7 x i8] }>
%class.Array = type { ptr, i64, i64, i64 }
%struct.BaseBlock = type { i32, i32, i32, i32, i8 }
%struct.MarkHeader = type { [8 x i8], i32 }
%struct.MainHeader = type { %struct.BaseBlock, i16, i32, i8, i8, i8, i64, i64, i64, i64, i64, %"class.std::__cxx11::basic_string", %class.RarTime }
%"class.std::__cxx11::basic_string" = type { %"struct.std::__cxx11::basic_string<wchar_t>::_Alloc_hider", i64, %union.anon }
%"struct.std::__cxx11::basic_string<wchar_t>::_Alloc_hider" = type { ptr }
%union.anon = type { i64, [8 x i8] }
%struct.CryptHeader = type { %struct.BaseBlock, i8, i32, [16 x i8], [8 x i8] }
%struct.EndArcHeader = type { %struct.BaseBlock, i32, i32, i8, i8, i8, i8 }
%struct.SubBlockHeader = type <{ %struct.BlockHeader, i16, i8, i8 }>
%struct.BlockHeader = type { %struct.BaseBlock, i32 }
%struct.FileHeader = type { %struct.BlockHeader, i8, i32, i8, %union.anon.0, [2048 x i32], %class.Array, %class.RarTime, %class.RarTime, %class.RarTime, i64, i64, i64, %struct.HashValue, i32, i8, i8, i8, i8, i32, i8, [16 x i8], [16 x i8], i8, [8 x i8], i8, [32 x i8], i32, i8, i8, i8, i8, i64, i8, i8, i8, i32, i32, [2048 x i32], i8, i8, i8, i8, [256 x i8], [256 x i8], i32, i32 }
%union.anon.0 = type { i32 }
%struct.HashValue = type { i32, %union.anon.1 }
%union.anon.1 = type { i32, [28 x i8] }
%struct.CommentHeader = type <{ %struct.BaseBlock, i16, i8, i8, i16, [2 x i8] }>
%struct.ProtectHeader = type { %struct.BlockHeader, i8, i16, i32, [8 x i8] }
%struct.EAHeader = type { %struct.SubBlockHeader.base, i32, i8, i8, i32 }
%struct.SubBlockHeader.base = type <{ %struct.BlockHeader, i16, i8 }>
%struct.StreamHeader = type <{ %struct.SubBlockHeader.base, i8, i32, i8, i8, [2 x i8], i32, i16, [260 x i8], [2 x i8] }>
%class.RAROptions = type { i32, i32, i8, i8, i8, i64, [2048 x i32], [2048 x i32], i32, i8, [2048 x i32], [2048 x i32], i32, i32, i32, i32, [2048 x i32], [2048 x i32], i8, i8, i8, [2048 x i32], i32, i32, i32, i32, i32, i32, i32, i32, i8, i8, i8, i8, i8, i32, i32, i8, i8, i8, i8, i8, i32, i32, i64, i32, i8, i8, i8, i32, i32, i8, i8, i8, i8, i32, i32, i8, i8, i8, i8, [128 x i32], [128 x i32], i8, i8, i8, i8, i8, %class.RarTime, %class.RarTime, %class.RarTime, i8, i8, i8, %class.RarTime, %class.RarTime, %class.RarTime, i8, i8, i8, i64, i64, i8, i8, i8, [16 x %struct.FilterMode], [2048 x i32], i32, i32, i32, i32, i32, i32, i8, [2048 x i32], i32, [2048 x i32], i32, i32, i64, ptr, ptr, ptr }
%struct.FilterMode = type { i32, i32, i32 }

; Function Attrs: mustprogress nounwind uwtable
define linkonce_odr noundef ptr @_ZN7Archive14GetCommandDataEv(ptr noundef nonnull align 8 dereferenceable(57108) %0) #4 comdat align 2 {
  %2 = alloca ptr, align 8
  store ptr %0, ptr %2, align 8
  %3 = load ptr, ptr %2, align 8
  %4 = getelementptr inbounds %class.Archive, ptr %3, i32 0, i32 5
  %5 = load ptr, ptr %4, align 8
  ret ptr %5
}

; Function Attrs: mustprogress uwtable
define void @_ZN11ComprDataIO11ShowUnpReadEll(ptr noundef nonnull align 8 dereferenceable(266) %0, i64 noundef %1, i64 noundef %2) #0 align 2 {
  %4 = alloca ptr, align 8
  %5 = alloca i64, align 8
  %6 = alloca i64, align 8
  %7 = alloca ptr, align 8
  %8 = alloca ptr, align 8
  %9 = alloca i32, align 4
  store ptr %0, ptr %4, align 8
  store i64 %1, ptr %5, align 8
  store i64 %2, ptr %6, align 8
  %10 = load ptr, ptr %4, align 8
  %11 = getelementptr inbounds %class.ComprDataIO, ptr %10, i32 0, i32 12
  %12 = load i8, ptr %11, align 8
  %13 = trunc i8 %12 to i1
  br i1 %13, label %14, label %51

14:                                               ; preds = %3
  %15 = getelementptr inbounds %class.ComprDataIO, ptr %10, i32 0, i32 17
  %16 = load ptr, ptr %15, align 8
  %17 = icmp ne ptr %16, null
  br i1 %17, label %18, label %51

18:                                               ; preds = %14
  %19 = getelementptr inbounds %class.ComprDataIO, ptr %10, i32 0, i32 34
  %20 = load i64, ptr %19, align 8
  %21 = load i64, ptr %5, align 8
  %22 = add nsw i64 %21, %20
  store i64 %22, ptr %5, align 8
  %23 = getelementptr inbounds %class.ComprDataIO, ptr %10, i32 0, i32 17
  %24 = load ptr, ptr %23, align 8
  store ptr %24, ptr %7, align 8
  %25 = load ptr, ptr %7, align 8
  %26 = call noundef ptr @_ZN7Archive14GetCommandDataEv(ptr noundef nonnull align 8 dereferenceable(57108) %25)
  store ptr %26, ptr %8, align 8
  %27 = load i64, ptr %5, align 8
  %28 = load i64, ptr %6, align 8
  %29 = call noundef i32 @_Z9ToPercentll(i64 noundef %27, i64 noundef %28)
  store i32 %29, ptr %9, align 4
  %30 = load ptr, ptr %8, align 8
  %31 = getelementptr inbounds %class.RAROptions, ptr %30, i32 0, i32 30
  %32 = load i8, ptr %31, align 4
  %33 = trunc i8 %32 to i1
  br i1 %33, label %50, label %34

34:                                               ; preds = %18
  %35 = load i32, ptr %9, align 4
  %36 = getelementptr inbounds %class.ComprDataIO, ptr %10, i32 0, i32 24
  %37 = load i32, ptr %36, align 8
  %38 = icmp ne i32 %35, %37
  br i1 %38, label %39, label %50

39:                                               ; preds = %34
  %40 = getelementptr inbounds %class.ComprDataIO, ptr %10, i32 0, i32 33
  %41 = load i64, ptr %40, align 8
  %42 = load ptr, ptr %7, align 8
  %43 = getelementptr inbounds %class.Archive, ptr %42, i32 0, i32 20
  %44 = getelementptr inbounds %struct.FileHeader, ptr %43, i32 0, i32 11
  %45 = load i64, ptr %44, align 8
  %46 = load i64, ptr %5, align 8
  %47 = load i64, ptr %6, align 8
  call void @_Z17uiExtractProgressllll(i64 noundef %41, i64 noundef %45, i64 noundef %46, i64 noundef %47)
  %48 = load i32, ptr %9, align 4
  %49 = getelementptr inbounds %class.ComprDataIO, ptr %10, i32 0, i32 24
  store i32 %48, ptr %49, align 8
  br label %50

50:                                               ; preds = %39, %34, %18
  br label %51

51:                                               ; preds = %50, %14, %3
  ret void
}