; Function Attrs: mustprogress uwtable
define void @_ZN11ComprDataIO11ShowUnpReadEll(ptr noundef nonnull align 8 captures(none) dereferenceable(266) %0, i64 noundef %1, i64 noundef %2) local_unnamed_addr #0 align 2 {
  %4 = getelementptr inbounds nuw i8, ptr %0, i64 80
  %5 = load i8, ptr %4, align 8
  %6 = trunc i8 %5 to i1
  br i1 %6, label %7, label %28

7:                                                ; preds = %3
  %8 = getelementptr inbounds nuw i8, ptr %0, i64 88
  %9 = load ptr, ptr %8, align 8
  %.not = icmp eq ptr %9, null
  br i1 %.not, label %28, label %10

10:                                               ; preds = %7
  %11 = getelementptr inbounds nuw i8, ptr %0, i64 192
  %12 = load i64, ptr %11, align 8
  %13 = add nsw i64 %12, %1
  %14 = getelementptr inbounds nuw i8, ptr %9, i64 11056
  %15 = load ptr, ptr %14, align 8
  %16 = tail call noundef i32 @_Z9ToPercentll(i64 noundef %13, i64 noundef %2)
  %17 = getelementptr inbounds nuw i8, ptr %15, i64 57428
  %18 = load i8, ptr %17, align 4
  %19 = trunc i8 %18 to i1
  br i1 %19, label %28, label %20

20:                                               ; preds = %10
  %21 = getelementptr inbounds nuw i8, ptr %0, i64 144
  %22 = load i32, ptr %21, align 8
  %.not11 = icmp eq i32 %16, %22
  br i1 %.not11, label %28, label %23

23:                                               ; preds = %20
  %24 = getelementptr inbounds nuw i8, ptr %0, i64 184
  %25 = load i64, ptr %24, align 8
  %26 = getelementptr inbounds nuw i8, ptr %9, i64 22272
  %27 = load i64, ptr %26, align 8
  tail call void @_Z17uiExtractProgressllll(i64 noundef %25, i64 noundef %27, i64 noundef %13, i64 noundef %2)
  store i32 %16, ptr %21, align 8
  br label %28

28:                                               ; preds = %10, %20, %23, %7, %3
  ret void
}